target datalayout = "e-m:e-p270:32:32-p271:32:32-p272:64:64-i64:64-i128:128-f80:128-n8:16:32:64-S128"
target triple = "x86_64-unknown-linux-gnu"

%"struct.boost::intrusive::list_node" = type { ptr, ptr }
%"class.std::function" = type { %"class.std::_Function_base", ptr }
%"class.std::_Function_base" = type { %"union.std::_Any_data", ptr }
%"union.std::_Any_data" = type { %"union.std::_Nocopy_types" }
%"union.std::_Nocopy_types" = type { { i64, i64 } }
%"class.proxygen::ByteEvent" = type { ptr, %"class.boost::intrusive::list_member_hook", i64, %"class.std::function" }
%"class.boost::intrusive::list_member_hook" = type { %"class.boost::intrusive::generic_hook" }
%"class.boost::intrusive::generic_hook" = type { %"struct.boost::intrusive::list_node" }
%"class.proxygen::TransactionByteEvent" = type { %"class.proxygen::ByteEvent", ptr }
%"struct.quic::QuicSocket::ByteEvent" = type { i64, i64, i32, %"class.std::chrono::duration" }
%"class.std::chrono::duration" = type { i64 }

; Function Attrs: mustprogress uwtable
define internal void @_ZN12_GLOBAL__N_120HQTransportByteEvent11onByteEventEN4quic10QuicSocket9ByteEventE(ptr noundef nonnull align 8 dereferenceable(80) %this, ptr noundef byval(%"struct.quic::QuicSocket::ByteEvent") align 8 %byteEvent) unnamed_addr #4 align 2 {
entry:
  %this.addr = alloca ptr, align 8
  store ptr %this, ptr %this.addr, align 8
  %this1 = load ptr, ptr %this.addr, align 8
  %txn_ = getelementptr inbounds %"class.proxygen::TransactionByteEvent", ptr %this1, i32 0, i32 1
  %0 = load ptr, ptr %txn_, align 8
  %tobool = icmp ne ptr %0, null
  br i1 %tobool, label %if.then, label %if.end

if.then:                                          ; preds = %entry
  %type = getelementptr inbounds %"struct.quic::QuicSocket::ByteEvent", ptr %byteEvent, i32 0, i32 2
  %1 = load i32, ptr %type, align 8
  switch i32 %1, label %sw.epilog [
    i32 2, label %sw.bb
    i32 1, label %sw.bb3
  ]

sw.bb:                                            ; preds = %if.then
  %txn_2 = getelementptr inbounds %"class.proxygen::TransactionByteEvent", ptr %this1, i32 0, i32 1
  %2 = load ptr, ptr %txn_2, align 8
  call void @_ZN8proxygen15HTTPTransaction26onEgressTrackedByteEventTXERKNS_9ByteEventE(ptr noundef nonnull align 8 dereferenceable(912) %2, ptr noundef nonnull align 8 dereferenceable(64) %this1)
  br label %sw.epilog

sw.bb3:                                           ; preds = %if.then
  %txn_4 = getelementptr inbounds %"class.proxygen::TransactionByteEvent", ptr %this1, i32 0, i32 1
  %3 = load ptr, ptr %txn_4, align 8
  call void @_ZN8proxygen15HTTPTransaction27onEgressTrackedByteEventAckERKNS_9ByteEventE(ptr noundef nonnull align 8 dereferenceable(912) %3, ptr noundef nonnull align 8 dereferenceable(64) %this1)
  br label %sw.epilog

sw.epilog:                                        ; preds = %sw.bb3, %sw.bb, %if.then
  br label %if.end

if.end:                                           ; preds = %sw.epilog, %entry
  %isnull = icmp eq ptr %this1, null
  br i1 %isnull, label %delete.end, label %delete.notnull

delete.notnull:                                   ; preds = %if.end
  %vtable = load ptr, ptr %this1, align 8
  %vfn = getelementptr inbounds ptr, ptr %vtable, i64 1
  %4 = load ptr, ptr %vfn, align 8
  call void %4(ptr noundef nonnull align 8 dereferenceable(80) %this1) #3
  br label %delete.end

delete.end:                                       ; preds = %delete.notnull, %if.end
  ret void
}

; Function Attrs: uwtable
define internal void @_ZThn72_N12_GLOBAL__N_120HQTransportByteEvent11onByteEventEN4quic10QuicSocket9ByteEventE(ptr noundef %this, ptr noundef byval(%"struct.quic::QuicSocket::ByteEvent") align 8 %byteEvent) unnamed_addr #0 align 2 {
entry:
  %this.addr = alloca ptr, align 8
  store ptr %this, ptr %this.addr, align 8
  %this1 = load ptr, ptr %this.addr, align 8
  %0 = getelementptr inbounds i8, ptr %this1, i64 -72
  tail call void @_ZN12_GLOBAL__N_120HQTransportByteEvent11onByteEventEN4quic10QuicSocket9ByteEventE(ptr noundef nonnull align 8 dereferenceable(80) %0, ptr noundef byval(%"struct.quic::QuicSocket::ByteEvent") align 8 %byteEvent)
  ret void
}