; Function Attrs: uwtable
define internal void @_ZThn72_N12_GLOBAL__N_120HQTransportByteEvent11onByteEventEN4quic10QuicSocket9ByteEventE(ptr noundef %this, ptr nocapture noundef readonly byval(%"struct.quic::QuicSocket::ByteEvent") align 8 %byteEvent) unnamed_addr #11 align 2 {
entry:
  %0 = getelementptr inbounds i8, ptr %this, i64 -72
  %txn_.i = getelementptr inbounds i8, ptr %this, i64 -8
  %1 = load ptr, ptr %txn_.i, align 8
  %tobool.not.i = icmp eq ptr %1, null
  br i1 %tobool.not.i, label %_ZN12_GLOBAL__N_120HQTransportByteEvent11onByteEventEN4quic10QuicSocket9ByteEventE.exit, label %if.then.i

if.then.i:                                        ; preds = %entry
  %byteEvent1.sroa.3.0.byteEvent.sroa_idx = getelementptr inbounds i8, ptr %byteEvent, i64 16
  %byteEvent1.sroa.3.0.copyload = load i32, ptr %byteEvent1.sroa.3.0.byteEvent.sroa_idx, align 8
  switch i32 %byteEvent1.sroa.3.0.copyload, label %_ZN12_GLOBAL__N_120HQTransportByteEvent11onByteEventEN4quic10QuicSocket9ByteEventE.exit [
    i32 2, label %sw.bb.i
    i32 1, label %sw.bb3.i
  ]

sw.bb.i:                                          ; preds = %if.then.i
  tail call void @_ZN8proxygen15HTTPTransaction26onEgressTrackedByteEventTXERKNS_9ByteEventE(ptr noundef nonnull align 8 dereferenceable(912) %1, ptr noundef nonnull align 8 dereferenceable(64) %0)
  br label %_ZN12_GLOBAL__N_120HQTransportByteEvent11onByteEventEN4quic10QuicSocket9ByteEventE.exit

sw.bb3.i:                                         ; preds = %if.then.i
  tail call void @_ZN8proxygen15HTTPTransaction27onEgressTrackedByteEventAckERKNS_9ByteEventE(ptr noundef nonnull align 8 dereferenceable(912) %1, ptr noundef nonnull align 8 dereferenceable(64) %0)
  br label %_ZN12_GLOBAL__N_120HQTransportByteEvent11onByteEventEN4quic10QuicSocket9ByteEventE.exit

_ZN12_GLOBAL__N_120HQTransportByteEvent11onByteEventEN4quic10QuicSocket9ByteEventE.exit: ; preds = %entry, %if.then.i, %sw.bb.i, %sw.bb3.i
  %vtable.i = load ptr, ptr %0, align 8
  %vfn.i = getelementptr inbounds i8, ptr %vtable.i, i64 8
  %2 = load ptr, ptr %vfn.i, align 8
  tail call void %2(ptr noundef nonnull align 8 dereferenceable(80) %0) #17
  ret void
}